target datalayout = "e-m:e-p270:32:32-p271:32:32-p272:64:64-i64:64-i128:128-f80:128-n8:16:32:64-S128"
target triple = "x86_64-unknown-linux-gnu"

%"class.mold::LittleEndian" = type { [4 x i8] }
%"struct.mold::elf::ElfRel" = type { %"class.mold::LittleEndian", i8, %"class.mold::LittleEndian.3" }
%"class.mold::LittleEndian.3" = type { [3 x i8] }
%"class.mold::LittleEndian.5" = type { [2 x i8] }

; Function Attrs: mustprogress nounwind
define linkonce_odr dso_local noundef i64 @_ZN4mold3bitEml(i64 noundef %val, i64 noundef %pos) #4 comdat {
entry:
  %val.addr = alloca i64, align 8
  %pos.addr = alloca i64, align 8
  store i64 %val, ptr %val.addr, align 8
  store i64 %pos, ptr %pos.addr, align 8
  %0 = load i64, ptr %val.addr, align 8
  %1 = load i64, ptr %pos.addr, align 8
  %shr = lshr i64 %0, %1
  %and = and i64 %shr, 1
  ret i64 %and
}

; Function Attrs: mustprogress nounwind
define internal void @_ZN4mold3elfL17write_thm_mov_immEPhj(ptr noundef %loc, i32 noundef %val) #4 {
entry:
  %loc.addr = alloca ptr, align 8
  %val.addr = alloca i32, align 4
  %imm4 = alloca i32, align 4
  %i = alloca i32, align 4
  %imm3 = alloca i32, align 4
  %imm8 = alloca i32, align 4
  %buf = alloca ptr, align 8
  store ptr %loc, ptr %loc.addr, align 8
  store i32 %val, ptr %val.addr, align 4
  %0 = load i32, ptr %val.addr, align 4
  %conv = zext i32 %0 to i64
  %call = call noundef i64 @_ZN4mold4bitsEmmm(i64 noundef %conv, i64 noundef 15, i64 noundef 12)
  %conv1 = trunc i64 %call to i32
  store i32 %conv1, ptr %imm4, align 4
  %1 = load i32, ptr %val.addr, align 4
  %conv2 = zext i32 %1 to i64
  %call3 = call noundef i64 @_ZN4mold3bitEml(i64 noundef %conv2, i64 noundef 11)
  %conv4 = trunc i64 %call3 to i32
  store i32 %conv4, ptr %i, align 4
  %2 = load i32, ptr %val.addr, align 4
  %conv5 = zext i32 %2 to i64
  %call6 = call noundef i64 @_ZN4mold4bitsEmmm(i64 noundef %conv5, i64 noundef 10, i64 noundef 8)
  %conv7 = trunc i64 %call6 to i32
  store i32 %conv7, ptr %imm3, align 4
  %3 = load i32, ptr %val.addr, align 4
  %conv8 = zext i32 %3 to i64
  %call9 = call noundef i64 @_ZN4mold4bitsEmmm(i64 noundef %conv8, i64 noundef 7, i64 noundef 0)
  %conv10 = trunc i64 %call9 to i32
  store i32 %conv10, ptr %imm8, align 4
  %4 = load ptr, ptr %loc.addr, align 8
  store ptr %4, ptr %buf, align 8
  %5 = load ptr, ptr %buf, align 8
  %arrayidx = getelementptr inbounds %"class.mold::LittleEndian.5", ptr %5, i64 0
  %call11 = call noundef zeroext i16 @_ZNK4mold12LittleEndianItLi2EEcvtEv(ptr noundef nonnull align 1 dereferenceable(2) %arrayidx)
  %conv12 = zext i16 %call11 to i32
  %and = and i32 %conv12, 64496
  %6 = load i32, ptr %i, align 4
  %shl = shl i32 %6, 10
  %or = or i32 %and, %shl
  %7 = load i32, ptr %imm4, align 4
  %or13 = or i32 %or, %7
  %conv14 = trunc i32 %or13 to i16
  %8 = load ptr, ptr %buf, align 8
  %arrayidx15 = getelementptr inbounds %"class.mold::LittleEndian.5", ptr %8, i64 0
  %call16 = call noundef nonnull align 1 dereferenceable(2) ptr @_ZN4mold12LittleEndianItLi2EEaSEt(ptr noundef nonnull align 1 dereferenceable(2) %arrayidx15, i16 noundef zeroext %conv14)
  %9 = load ptr, ptr %buf, align 8
  %arrayidx17 = getelementptr inbounds %"class.mold::LittleEndian.5", ptr %9, i64 1
  %call18 = call noundef zeroext i16 @_ZNK4mold12LittleEndianItLi2EEcvtEv(ptr noundef nonnull align 1 dereferenceable(2) %arrayidx17)
  %conv19 = zext i16 %call18 to i32
  %and20 = and i32 %conv19, 36608
  %10 = load i32, ptr %imm3, align 4
  %shl21 = shl i32 %10, 12
  %or22 = or i32 %and20, %shl21
  %11 = load i32, ptr %imm8, align 4
  %or23 = or i32 %or22, %11
  %conv24 = trunc i32 %or23 to i16
  %12 = load ptr, ptr %buf, align 8
  %arrayidx25 = getelementptr inbounds %"class.mold::LittleEndian.5", ptr %12, i64 1
  %call26 = call noundef nonnull align 1 dereferenceable(2) ptr @_ZN4mold12LittleEndianItLi2EEaSEt(ptr noundef nonnull align 1 dereferenceable(2) %arrayidx25, i16 noundef zeroext %conv24)
  ret void
}

; Function Attrs: mustprogress nounwind
define internal void @_ZN4mold3elfL13write_mov_immEPhj(ptr noundef %loc, i32 noundef %val) #4 {
entry:
  %loc.addr = alloca ptr, align 8
  %val.addr = alloca i32, align 4
  %imm12 = alloca i32, align 4
  %imm4 = alloca i32, align 4
  store ptr %loc, ptr %loc.addr, align 8
  store i32 %val, ptr %val.addr, align 4
  %0 = load i32, ptr %val.addr, align 4
  %conv = zext i32 %0 to i64
  %call = call noundef i64 @_ZN4mold4bitsEmmm(i64 noundef %conv, i64 noundef 11, i64 noundef 0)
  %conv1 = trunc i64 %call to i32
  store i32 %conv1, ptr %imm12, align 4
  %1 = load i32, ptr %val.addr, align 4
  %conv2 = zext i32 %1 to i64
  %call3 = call noundef i64 @_ZN4mold4bitsEmmm(i64 noundef %conv2, i64 noundef 15, i64 noundef 12)
  %conv4 = trunc i64 %call3 to i32
  store i32 %conv4, ptr %imm4, align 4
  %2 = load ptr, ptr %loc.addr, align 8
  %call5 = call noundef i32 @_ZNK4mold12LittleEndianIjLi4EEcvjEv(ptr noundef nonnull align 1 dereferenceable(4) %2)
  %and = and i32 %call5, -987136
  %3 = load i32, ptr %imm4, align 4
  %shl = shl i32 %3, 16
  %or = or i32 %and, %shl
  %4 = load i32, ptr %imm12, align 4
  %or6 = or i32 %or, %4
  %5 = load ptr, ptr %loc.addr, align 8
  %call7 = call noundef nonnull align 1 dereferenceable(4) ptr @_ZN4mold12LittleEndianIjLi4EEaSEj(ptr noundef nonnull align 1 dereferenceable(4) %5, i32 noundef %or6)
  ret void
}

; Function Attrs: mustprogress nounwind
define linkonce_odr dso_local noundef i32 @_ZNK4mold12LittleEndianIjLi4EEcvjEv(ptr noundef nonnull align 1 dereferenceable(4) %this) #4 comdat align 2 {
entry:
  %this.addr = alloca ptr, align 8
  %x = alloca i32, align 4
  store ptr %this, ptr %this.addr, align 8
  %this1 = load ptr, ptr %this.addr, align 8
  %val = getelementptr inbounds %"class.mold::LittleEndian", ptr %this1, i32 0, i32 0
  %arraydecay = getelementptr inbounds [4 x i8], ptr %val, i64 0, i64 0
  call void @llvm.memcpy.p0.p0.i64(ptr align 4 %x, ptr align 1 %arraydecay, i64 4, i1 false)
  %0 = load i32, ptr %x, align 4
  ret i32 %0
}

; Function Attrs: mustprogress nounwind
define internal void @_ZN4mold3elfL15write_thm_b_immEPhj(ptr noundef %loc, i32 noundef %val) #4 {
entry:
  %loc.addr = alloca ptr, align 8
  %val.addr = alloca i32, align 4
  %sign = alloca i32, align 4
  %I1 = alloca i32, align 4
  %I2 = alloca i32, align 4
  %J1 = alloca i32, align 4
  %J2 = alloca i32, align 4
  %imm10 = alloca i32, align 4
  %imm11 = alloca i32, align 4
  %buf = alloca ptr, align 8
  store ptr %loc, ptr %loc.addr, align 8
  store i32 %val, ptr %val.addr, align 4
  %0 = load i32, ptr %val.addr, align 4
  %conv = zext i32 %0 to i64
  %call = call noundef i64 @_ZN4mold3bitEml(i64 noundef %conv, i64 noundef 24)
  %conv1 = trunc i64 %call to i32
  store i32 %conv1, ptr %sign, align 4
  %1 = load i32, ptr %val.addr, align 4
  %conv2 = zext i32 %1 to i64
  %call3 = call noundef i64 @_ZN4mold3bitEml(i64 noundef %conv2, i64 noundef 23)
  %conv4 = trunc i64 %call3 to i32
  store i32 %conv4, ptr %I1, align 4
  %2 = load i32, ptr %val.addr, align 4
  %conv5 = zext i32 %2 to i64
  %call6 = call noundef i64 @_ZN4mold3bitEml(i64 noundef %conv5, i64 noundef 22)
  %conv7 = trunc i64 %call6 to i32
  store i32 %conv7, ptr %I2, align 4
  %3 = load i32, ptr %I1, align 4
  %tobool = icmp ne i32 %3, 0
  %lnot = xor i1 %tobool, true
  %conv8 = zext i1 %lnot to i32
  %4 = load i32, ptr %sign, align 4
  %xor = xor i32 %conv8, %4
  store i32 %xor, ptr %J1, align 4
  %5 = load i32, ptr %I2, align 4
  %tobool9 = icmp ne i32 %5, 0
  %lnot10 = xor i1 %tobool9, true
  %conv11 = zext i1 %lnot10 to i32
  %6 = load i32, ptr %sign, align 4
  %xor12 = xor i32 %conv11, %6
  store i32 %xor12, ptr %J2, align 4
  %7 = load i32, ptr %val.addr, align 4
  %conv13 = zext i32 %7 to i64
  %call14 = call noundef i64 @_ZN4mold4bitsEmmm(i64 noundef %conv13, i64 noundef 21, i64 noundef 12)
  %conv15 = trunc i64 %call14 to i32
  store i32 %conv15, ptr %imm10, align 4
  %8 = load i32, ptr %val.addr, align 4
  %conv16 = zext i32 %8 to i64
  %call17 = call noundef i64 @_ZN4mold4bitsEmmm(i64 noundef %conv16, i64 noundef 11, i64 noundef 1)
  %conv18 = trunc i64 %call17 to i32
  store i32 %conv18, ptr %imm11, align 4
  %9 = load ptr, ptr %loc.addr, align 8
  store ptr %9, ptr %buf, align 8
  %10 = load ptr, ptr %buf, align 8
  %arrayidx = getelementptr inbounds %"class.mold::LittleEndian.5", ptr %10, i64 0
  %call19 = call noundef zeroext i16 @_ZNK4mold12LittleEndianItLi2EEcvtEv(ptr noundef nonnull align 1 dereferenceable(2) %arrayidx)
  %conv20 = zext i16 %call19 to i32
  %and = and i32 %conv20, 63488
  %11 = load i32, ptr %sign, align 4
  %shl = shl i32 %11, 10
  %or = or i32 %and, %shl
  %12 = load i32, ptr %imm10, align 4
  %or21 = or i32 %or, %12
  %conv22 = trunc i32 %or21 to i16
  %13 = load ptr, ptr %buf, align 8
  %arrayidx23 = getelementptr inbounds %"class.mold::LittleEndian.5", ptr %13, i64 0
  %call24 = call noundef nonnull align 1 dereferenceable(2) ptr @_ZN4mold12LittleEndianItLi2EEaSEt(ptr noundef nonnull align 1 dereferenceable(2) %arrayidx23, i16 noundef zeroext %conv22)
  %14 = load ptr, ptr %buf, align 8
  %arrayidx25 = getelementptr inbounds %"class.mold::LittleEndian.5", ptr %14, i64 1
  %call26 = call noundef zeroext i16 @_ZNK4mold12LittleEndianItLi2EEcvtEv(ptr noundef nonnull align 1 dereferenceable(2) %arrayidx25)
  %conv27 = zext i16 %call26 to i32
  %and28 = and i32 %conv27, 53248
  %15 = load i32, ptr %J1, align 4
  %shl29 = shl i32 %15, 13
  %or30 = or i32 %and28, %shl29
  %16 = load i32, ptr %J2, align 4
  %shl31 = shl i32 %16, 11
  %or32 = or i32 %or30, %shl31
  %17 = load i32, ptr %imm11, align 4
  %or33 = or i32 %or32, %17
  %conv34 = trunc i32 %or33 to i16
  %18 = load ptr, ptr %buf, align 8
  %arrayidx35 = getelementptr inbounds %"class.mold::LittleEndian.5", ptr %18, i64 1
  %call36 = call noundef nonnull align 1 dereferenceable(2) ptr @_ZN4mold12LittleEndianItLi2EEaSEt(ptr noundef nonnull align 1 dereferenceable(2) %arrayidx35, i16 noundef zeroext %conv34)
  ret void
}

; Function Attrs: mustprogress nounwind
define linkonce_odr dso_local noundef nonnull align 1 dereferenceable(2) ptr @_ZN4mold12LittleEndianItLi2EEaSEt(ptr noundef nonnull align 1 dereferenceable(2) %this, i16 noundef zeroext %x) #4 comdat align 2 {
entry:
  %this.addr = alloca ptr, align 8
  %x.addr = alloca i16, align 2
  store ptr %this, ptr %this.addr, align 8
  store i16 %x, ptr %x.addr, align 2
  %this1 = load ptr, ptr %this.addr, align 8
  %val = getelementptr inbounds %"class.mold::LittleEndian.5", ptr %this1, i32 0, i32 0
  %arraydecay = getelementptr inbounds [2 x i8], ptr %val, i64 0, i64 0
  call void @llvm.memcpy.p0.p0.i64(ptr align 1 %arraydecay, ptr align 2 %x.addr, i64 2, i1 false)
  ret ptr %this1
}

; Function Attrs: mustprogress nounwind
define linkonce_odr dso_local noundef i64 @_ZN4mold4bitsEmmm(i64 noundef %val, i64 noundef %hi, i64 noundef %lo) #4 comdat {
entry:
  %val.addr = alloca i64, align 8
  %hi.addr = alloca i64, align 8
  %lo.addr = alloca i64, align 8
  store i64 %val, ptr %val.addr, align 8
  store i64 %hi, ptr %hi.addr, align 8
  store i64 %lo, ptr %lo.addr, align 8
  %0 = load i64, ptr %val.addr, align 8
  %1 = load i64, ptr %lo.addr, align 8
  %shr = lshr i64 %0, %1
  %2 = load i64, ptr %hi.addr, align 8
  %3 = load i64, ptr %lo.addr, align 8
  %sub = sub i64 %2, %3
  %add = add i64 %sub, 1
  %shl = shl i64 1, %add
  %sub1 = sub nsw i64 %shl, 1
  %and = and i64 %shr, %sub1
  ret i64 %and
}

; Function Attrs: mustprogress nounwind
define linkonce_odr dso_local noundef zeroext i16 @_ZNK4mold12LittleEndianItLi2EEcvtEv(ptr noundef nonnull align 1 dereferenceable(2) %this) #4 comdat align 2 {
entry:
  %this.addr = alloca ptr, align 8
  %x = alloca i16, align 2
  store ptr %this, ptr %this.addr, align 8
  %this1 = load ptr, ptr %this.addr, align 8
  %val = getelementptr inbounds %"class.mold::LittleEndian.5", ptr %this1, i32 0, i32 0
  %arraydecay = getelementptr inbounds [2 x i8], ptr %val, i64 0, i64 0
  call void @llvm.memcpy.p0.p0.i64(ptr align 2 %x, ptr align 1 %arraydecay, i64 2, i1 false)
  %0 = load i16, ptr %x, align 2
  ret i16 %0
}

; Function Attrs: mustprogress nounwind
define linkonce_odr dso_local noundef nonnull align 1 dereferenceable(4) ptr @_ZN4mold12LittleEndianIjLi4EEaSEj(ptr noundef nonnull align 1 dereferenceable(4) %this, i32 noundef %x) #4 comdat align 2 {
entry:
  %this.addr = alloca ptr, align 8
  %x.addr = alloca i32, align 4
  store ptr %this, ptr %this.addr, align 8
  store i32 %x, ptr %x.addr, align 4
  %this1 = load ptr, ptr %this.addr, align 8
  %val = getelementptr inbounds %"class.mold::LittleEndian", ptr %this1, i32 0, i32 0
  %arraydecay = getelementptr inbounds [4 x i8], ptr %val, i64 0, i64 0
  call void @llvm.memcpy.p0.p0.i64(ptr align 1 %arraydecay, ptr align 4 %x.addr, i64 4, i1 false)
  ret ptr %this1
}

; Function Attrs: mustprogress nounwind
define dso_local void @_ZN4mold3elf12write_addendINS0_5ARM32EEEvPhlRKNS0_6ElfRelIT_EE(ptr noundef %loc, i64 noundef %val, ptr noundef nonnull align 1 dereferenceable(8) %rel) #4 {
entry:
  %loc.addr = alloca ptr, align 8
  %val.addr = alloca i64, align 8
  %rel.addr = alloca ptr, align 8
  store ptr %loc, ptr %loc.addr, align 8
  store i64 %val, ptr %val.addr, align 8
  store ptr %rel, ptr %rel.addr, align 8
  %0 = load ptr, ptr %rel.addr, align 8
  %r_type = getelementptr inbounds %"struct.mold::elf::ElfRel", ptr %0, i32 0, i32 1
  %1 = load i8, ptr %r_type, align 1
  %conv = zext i8 %1 to i32
  switch i32 %conv, label %sw.default [
    i32 0, label %sw.bb
    i32 2, label %sw.bb1
    i32 3, label %sw.bb1
    i32 38, label %sw.bb1
    i32 25, label %sw.bb1
    i32 24, label %sw.bb1
    i32 96, label %sw.bb1
    i32 26, label %sw.bb1
    i32 104, label %sw.bb1
    i32 105, label %sw.bb1
    i32 106, label %sw.bb1
    i32 107, label %sw.bb1
    i32 108, label %sw.bb1
    i32 90, label %sw.bb1
    i32 41, label %sw.bb1
    i32 102, label %sw.bb3
    i32 10, label %sw.bb10
    i32 30, label %sw.bb10
    i32 93, label %sw.bb10
    i32 28, label %sw.bb12
    i32 29, label %sw.bb12
    i32 27, label %sw.bb12
    i32 45, label %sw.bb20
    i32 43, label %sw.bb20
    i32 46, label %sw.bb20
    i32 44, label %sw.bb20
    i32 42, label %sw.bb22
    i32 49, label %sw.bb30
    i32 47, label %sw.bb30
    i32 50, label %sw.bb30
    i32 48, label %sw.bb30
  ]

sw.bb:                                            ; preds = %entry
  br label %sw.epilog

sw.bb1:                                           ; preds = %entry, %entry, %entry, %entry, %entry, %entry, %entry, %entry, %entry, %entry, %entry, %entry, %entry, %entry
  %2 = load i64, ptr %val.addr, align 8
  %conv2 = trunc i64 %2 to i32
  %3 = load ptr, ptr %loc.addr, align 8
  %call = call noundef nonnull align 1 dereferenceable(4) ptr @_ZN4mold12LittleEndianIjLi4EEaSEj(ptr noundef nonnull align 1 dereferenceable(4) %3, i32 noundef %conv2)
  br label %sw.epilog

sw.bb3:                                           ; preds = %entry
  %4 = load ptr, ptr %loc.addr, align 8
  %call4 = call noundef zeroext i16 @_ZNK4mold12LittleEndianItLi2EEcvtEv(ptr noundef nonnull align 1 dereferenceable(2) %4)
  %conv5 = zext i16 %call4 to i32
  %and = and i32 %conv5, 63488
  %conv6 = sext i32 %and to i64
  %5 = load i64, ptr %val.addr, align 8
  %call7 = call noundef i64 @_ZN4mold4bitsEmmm(i64 noundef %5, i64 noundef 11, i64 noundef 1)
  %or = or i64 %conv6, %call7
  %conv8 = trunc i64 %or to i16
  %6 = load ptr, ptr %loc.addr, align 8
  %call9 = call noundef nonnull align 1 dereferenceable(2) ptr @_ZN4mold12LittleEndianItLi2EEaSEt(ptr noundef nonnull align 1 dereferenceable(2) %6, i16 noundef zeroext %conv8)
  br label %sw.epilog

sw.bb10:                                          ; preds = %entry, %entry, %entry
  %7 = load ptr, ptr %loc.addr, align 8
  %8 = load i64, ptr %val.addr, align 8
  %conv11 = trunc i64 %8 to i32
  call void @_ZN4mold3elfL15write_thm_b_immEPhj(ptr noundef %7, i32 noundef %conv11)
  br label %sw.epilog

sw.bb12:                                          ; preds = %entry, %entry, %entry
  %9 = load ptr, ptr %loc.addr, align 8
  %call13 = call noundef i32 @_ZNK4mold12LittleEndianIjLi4EEcvjEv(ptr noundef nonnull align 1 dereferenceable(4) %9)
  %and14 = and i32 %call13, -16777216
  %conv15 = zext i32 %and14 to i64
  %10 = load i64, ptr %val.addr, align 8
  %call16 = call noundef i64 @_ZN4mold4bitsEmmm(i64 noundef %10, i64 noundef 25, i64 noundef 2)
  %or17 = or i64 %conv15, %call16
  %conv18 = trunc i64 %or17 to i32
  %11 = load ptr, ptr %loc.addr, align 8
  %call19 = call noundef nonnull align 1 dereferenceable(4) ptr @_ZN4mold12LittleEndianIjLi4EEaSEj(ptr noundef nonnull align 1 dereferenceable(4) %11, i32 noundef %conv18)
  br label %sw.epilog

sw.bb20:                                          ; preds = %entry, %entry, %entry, %entry
  %12 = load ptr, ptr %loc.addr, align 8
  %13 = load i64, ptr %val.addr, align 8
  %conv21 = trunc i64 %13 to i32
  call void @_ZN4mold3elfL13write_mov_immEPhj(ptr noundef %12, i32 noundef %conv21)
  br label %sw.epilog

sw.bb22:                                          ; preds = %entry
  %14 = load ptr, ptr %loc.addr, align 8
  %call23 = call noundef i32 @_ZNK4mold12LittleEndianIjLi4EEcvjEv(ptr noundef nonnull align 1 dereferenceable(4) %14)
  %and24 = and i32 %call23, -2147483648
  %conv25 = zext i32 %and24 to i64
  %15 = load i64, ptr %val.addr, align 8
  %and26 = and i64 %15, 2147483647
  %or27 = or i64 %conv25, %and26
  %conv28 = trunc i64 %or27 to i32
  %16 = load ptr, ptr %loc.addr, align 8
  %call29 = call noundef nonnull align 1 dereferenceable(4) ptr @_ZN4mold12LittleEndianIjLi4EEaSEj(ptr noundef nonnull align 1 dereferenceable(4) %16, i32 noundef %conv28)
  br label %sw.epilog

sw.bb30:                                          ; preds = %entry, %entry, %entry, %entry
  %17 = load ptr, ptr %loc.addr, align 8
  %18 = load i64, ptr %val.addr, align 8
  %conv31 = trunc i64 %18 to i32
  call void @_ZN4mold3elfL17write_thm_mov_immEPhj(ptr noundef %17, i32 noundef %conv31)
  br label %sw.epilog

sw.default:                                       ; preds = %entry
  unreachable

sw.epilog:                                        ; preds = %sw.bb30, %sw.bb22, %sw.bb20, %sw.bb12, %sw.bb10, %sw.bb3, %sw.bb1, %sw.bb
  ret void
}