; Function Attrs: mustprogress nofree norecurse nosync nounwind willreturn memory(argmem: readwrite)
define dso_local void @_ZN4mold3elf12write_addendINS0_5ARM32EEEvPhlRKNS0_6ElfRelIT_EE(ptr nocapture noundef %loc, i64 noundef %val, ptr nocapture noundef nonnull readonly align 1 dereferenceable(8) %rel) local_unnamed_addr #6 {
entry:
  %r_type = getelementptr inbounds i8, ptr %rel, i64 4
  %0 = load i8, ptr %r_type, align 1
  switch i8 %0, label %sw.default [
    i8 0, label %sw.epilog
    i8 2, label %sw.bb1
    i8 3, label %sw.bb1
    i8 38, label %sw.bb1
    i8 25, label %sw.bb1
    i8 24, label %sw.bb1
    i8 96, label %sw.bb1
    i8 26, label %sw.bb1
    i8 104, label %sw.bb1
    i8 105, label %sw.bb1
    i8 106, label %sw.bb1
    i8 107, label %sw.bb1
    i8 108, label %sw.bb1
    i8 90, label %sw.bb1
    i8 41, label %sw.bb1
    i8 102, label %sw.bb3
    i8 10, label %sw.bb10
    i8 30, label %sw.bb10
    i8 93, label %sw.bb10
    i8 28, label %sw.bb12
    i8 29, label %sw.bb12
    i8 27, label %sw.bb12
    i8 45, label %sw.bb20
    i8 43, label %sw.bb20
    i8 46, label %sw.bb20
    i8 44, label %sw.bb20
    i8 42, label %sw.bb22
    i8 49, label %sw.bb30
    i8 47, label %sw.bb30
    i8 50, label %sw.bb30
    i8 48, label %sw.bb30
  ]

sw.bb1:                                           ; preds = %entry, %entry, %entry, %entry, %entry, %entry, %entry, %entry, %entry, %entry, %entry, %entry, %entry, %entry
  %conv2 = trunc i64 %val to i32
  store i32 %conv2, ptr %loc, align 1
  br label %sw.epilog

sw.bb3:                                           ; preds = %entry
  %x.0.copyload.i = load i16, ptr %loc, align 1
  %1 = and i16 %x.0.copyload.i, -2048
  %2 = trunc i64 %val to i16
  %3 = lshr i16 %2, 1
  %4 = and i16 %3, 2047
  %conv8 = or disjoint i16 %1, %4
  store i16 %conv8, ptr %loc, align 1
  br label %sw.epilog

sw.bb10:                                          ; preds = %entry, %entry, %entry
  %conv11 = trunc i64 %val to i32
  %shr.i.i = lshr i32 %conv11, 24
  %and.i.i = and i32 %shr.i.i, 1
  %5 = and i64 %val, 8388608
  %tobool.not.i = icmp eq i64 %5, 0
  %conv8.i = zext i1 %tobool.not.i to i32
  %xor.i = xor i32 %and.i.i, %conv8.i
  %6 = and i64 %val, 4194304
  %tobool9.not.i = icmp eq i64 %6, 0
  %conv11.i = zext i1 %tobool9.not.i to i32
  %xor12.i = xor i32 %and.i.i, %conv11.i
  %shr.i14.i = lshr i32 %conv11, 12
  %and.i15.i = and i32 %shr.i14.i, 1023
  %shr.i16.i = lshr i32 %conv11, 1
  %and.i17.i = and i32 %shr.i16.i, 2047
  %x.0.copyload.i.i = load i16, ptr %loc, align 1
  %7 = and i16 %x.0.copyload.i.i, -2048
  %and.i16 = zext i16 %7 to i32
  %shl.i = shl nuw nsw i32 %and.i.i, 10
  %or.i = or disjoint i32 %shl.i, %and.i16
  %or21.i = or disjoint i32 %or.i, %and.i15.i
  %conv22.i = trunc i32 %or21.i to i16
  store i16 %conv22.i, ptr %loc, align 1
  %arrayidx25.i = getelementptr inbounds i8, ptr %loc, i64 2
  %x.0.copyload.i18.i = load i16, ptr %arrayidx25.i, align 1
  %8 = and i16 %x.0.copyload.i18.i, -12288
  %and28.i = zext i16 %8 to i32
  %shl29.i = shl nuw nsw i32 %xor.i, 13
  %or30.i = or disjoint i32 %shl29.i, %and28.i
  %shl31.i = shl nuw nsw i32 %xor12.i, 11
  %or32.i = or disjoint i32 %or30.i, %shl31.i
  %or33.i = or disjoint i32 %or32.i, %and.i17.i
  %conv34.i = trunc i32 %or33.i to i16
  store i16 %conv34.i, ptr %arrayidx25.i, align 1
  br label %sw.epilog

sw.bb12:                                          ; preds = %entry, %entry, %entry
  %x.0.copyload.i17 = load i32, ptr %loc, align 1
  %and14 = and i32 %x.0.copyload.i17, -16777216
  %9 = trunc i64 %val to i32
  %10 = lshr i32 %9, 2
  %11 = and i32 %10, 16777215
  %conv18 = or disjoint i32 %and14, %11
  store i32 %conv18, ptr %loc, align 1
  br label %sw.epilog

sw.bb20:                                          ; preds = %entry, %entry, %entry, %entry
  %conv21 = trunc i64 %val to i32
  %and.i.i20 = and i32 %conv21, 4095
  %x.0.copyload.i.i21 = load i32, ptr %loc, align 1
  %and.i22 = and i32 %x.0.copyload.i.i21, -987136
  %12 = shl i32 %conv21, 4
  %shl.i23 = and i32 %12, 983040
  %or.i24 = or disjoint i32 %shl.i23, %and.i.i20
  %or6.i = or disjoint i32 %or.i24, %and.i22
  store i32 %or6.i, ptr %loc, align 1
  br label %sw.epilog

sw.bb22:                                          ; preds = %entry
  %x.0.copyload.i25 = load i32, ptr %loc, align 1
  %and24 = and i32 %x.0.copyload.i25, -2147483648
  %13 = trunc i64 %val to i32
  %14 = and i32 %13, 2147483647
  %conv28 = or disjoint i32 %and24, %14
  store i32 %conv28, ptr %loc, align 1
  br label %sw.epilog

sw.bb30:                                          ; preds = %entry, %entry, %entry, %entry
  %15 = trunc i64 %val to i16
  %16 = lshr i16 %15, 12
  %conv10.i = and i16 %15, 255
  %x.0.copyload.i.i26 = load i16, ptr %loc, align 1
  %17 = and i16 %x.0.copyload.i.i26, -1040
  %18 = lshr i16 %15, 1
  %shl.i27 = and i16 %18, 1024
  %or.i28 = or disjoint i16 %shl.i27, %16
  %or13.i = or disjoint i16 %or.i28, %17
  store i16 %or13.i, ptr %loc, align 1
  %arrayidx17.i = getelementptr inbounds i8, ptr %loc, i64 2
  %x.0.copyload.i12.i = load i16, ptr %arrayidx17.i, align 1
  %19 = and i16 %x.0.copyload.i12.i, -28928
  %20 = shl i16 %15, 4
  %shl21.i = and i16 %20, 28672
  %or22.i = or disjoint i16 %shl21.i, %conv10.i
  %or23.i = or disjoint i16 %or22.i, %19
  store i16 %or23.i, ptr %arrayidx17.i, align 1
  br label %sw.epilog

sw.default:                                       ; preds = %entry
  unreachable

sw.epilog:                                        ; preds = %entry, %sw.bb30, %sw.bb22, %sw.bb20, %sw.bb12, %sw.bb10, %sw.bb3, %sw.bb1
  ret void
}